target datalayout = "e-m:e-p270:32:32-p271:32:32-p272:64:64-i64:64-i128:128-f80:128-n8:16:32:64-S128"
target triple = "x86_64-pc-linux-gnu"

@.str.432 = private unnamed_addr constant [2 x i8] c"\0A\00", align 1
@.str.433 = private unnamed_addr constant [3 x i8] c"%s\00", align 1
@.str.434 = private unnamed_addr constant [7 x i8] c"%d: %s\00", align 1

; Function Attrs: nounwind uwtable
define dso_local void @print_multi_line_string(ptr noundef %0, i32 noundef %1, i32 noundef %2) #0 {
  %4 = alloca ptr, align 8
  %5 = alloca i32, align 4
  %6 = alloca i32, align 4
  %7 = alloca ptr, align 8
  %8 = alloca ptr, align 8
  %9 = alloca ptr, align 8
  %10 = alloca i32, align 4
  store ptr %0, ptr %4, align 8
  store i32 %1, ptr %5, align 4
  store i32 %2, ptr %6, align 4
  call void @llvm.lifetime.start.p0(i64 8, ptr %7) #11
  call void @llvm.lifetime.start.p0(i64 8, ptr %8) #11
  call void @llvm.lifetime.start.p0(i64 8, ptr %9) #11
  store ptr null, ptr %9, align 8
  %11 = load ptr, ptr %4, align 8
  %12 = icmp ne ptr %11, null
  br i1 %12, label %14, label %13

13:                                               ; preds = %3
  store i32 1, ptr %10, align 4
  br label %35

14:                                               ; preds = %3
  %15 = load ptr, ptr %4, align 8
  %16 = call ptr @xstrdup(ptr noundef %15)
  store ptr %16, ptr %8, align 8
  %17 = load ptr, ptr %8, align 8
  %18 = call ptr @strtok_r(ptr noundef %17, ptr noundef @.str.432, ptr noundef %9) #11
  store ptr %18, ptr %7, align 8
  br label %19

19:                                               ; preds = %32, %14
  %20 = load ptr, ptr %7, align 8
  %21 = icmp ne ptr %20, null
  br i1 %21, label %22, label %34

22:                                               ; preds = %19
  %23 = load i32, ptr %5, align 4
  %24 = icmp eq i32 %23, -1
  br i1 %24, label %25, label %28

25:                                               ; preds = %22
  %26 = load i32, ptr %6, align 4
  %27 = load ptr, ptr %7, align 8
  call void (i32, ptr, ...) @log_var(i32 noundef %26, ptr noundef @.str.433, ptr noundef %27)
  br label %32

28:                                               ; preds = %22
  %29 = load i32, ptr %6, align 4
  %30 = load i32, ptr %5, align 4
  %31 = load ptr, ptr %7, align 8
  call void (i32, ptr, ...) @log_var(i32 noundef %29, ptr noundef @.str.434, i32 noundef %30, ptr noundef %31)
  br label %32

32:                                               ; preds = %28, %25
  %33 = call ptr @strtok_r(ptr noundef null, ptr noundef @.str.432, ptr noundef %9) #11
  store ptr %33, ptr %7, align 8
  br label %19, !llvm.loop !18

34:                                               ; preds = %19
  call void @slurm_xfree(ptr noundef %8)
  store i32 0, ptr %10, align 4
  br label %35

35:                                               ; preds = %34, %13
  call void @llvm.lifetime.end.p0(i64 8, ptr %9) #11
  call void @llvm.lifetime.end.p0(i64 8, ptr %8) #11
  call void @llvm.lifetime.end.p0(i64 8, ptr %7) #11
  %36 = load i32, ptr %10, align 4
  switch i32 %36, label %38 [
    i32 0, label %37
    i32 1, label %37
  ]

37:                                               ; preds = %35, %35
  ret void

38:                                               ; preds = %35
  unreachable
}