; Function Attrs: nounwind uwtable
define dso_local void @print_multi_line_string(ptr noundef %0, i32 noundef %1, i32 noundef %2) #1 {
  %4 = alloca ptr, align 8
  %5 = alloca ptr, align 8
  call void @llvm.lifetime.start.p0(i64 8, ptr nonnull %4) #24
  call void @llvm.lifetime.start.p0(i64 8, ptr nonnull %5) #24
  store ptr null, ptr %5, align 8
  %.not = icmp eq ptr %0, null
  br i1 %.not, label %12, label %6

6:                                                ; preds = %3
  %7 = tail call ptr @xstrdup(ptr noundef nonnull %0) #24
  store ptr %7, ptr %4, align 8
  %8 = call ptr @strtok_r(ptr noundef %7, ptr noundef nonnull @.str.432, ptr noundef nonnull %5) #24
  %.not1011 = icmp eq ptr %8, null
  br i1 %.not1011, label %._crit_edge, label %.lr.ph

.lr.ph:                                           ; preds = %6
  %9 = icmp eq i32 %1, -1
  br i1 %9, label %.lr.ph.split.us, label %.lr.ph.split

.lr.ph.split.us:                                  ; preds = %.lr.ph, %.lr.ph.split.us
  %.012.us = phi ptr [ %10, %.lr.ph.split.us ], [ %8, %.lr.ph ]
  call void (i32, ptr, ...) @log_var(i32 noundef %2, ptr noundef nonnull @.str.433, ptr noundef nonnull %.012.us) #24
  %10 = call ptr @strtok_r(ptr noundef null, ptr noundef nonnull @.str.432, ptr noundef nonnull %5) #24
  %.not10.us = icmp eq ptr %10, null
  br i1 %.not10.us, label %._crit_edge, label %.lr.ph.split.us, !llvm.loop !16

.lr.ph.split:                                     ; preds = %.lr.ph, %.lr.ph.split
  %.012 = phi ptr [ %11, %.lr.ph.split ], [ %8, %.lr.ph ]
  call void (i32, ptr, ...) @log_var(i32 noundef %2, ptr noundef nonnull @.str.434, i32 noundef %1, ptr noundef nonnull %.012) #24
  %11 = call ptr @strtok_r(ptr noundef null, ptr noundef nonnull @.str.432, ptr noundef nonnull %5) #24
  %.not10 = icmp eq ptr %11, null
  br i1 %.not10, label %._crit_edge, label %.lr.ph.split, !llvm.loop !16

._crit_edge:                                      ; preds = %.lr.ph.split, %.lr.ph.split.us, %6
  call void @slurm_xfree(ptr noundef nonnull %4) #24
  br label %12

12:                                               ; preds = %3, %._crit_edge
  call void @llvm.lifetime.end.p0(i64 8, ptr nonnull %5) #24
  call void @llvm.lifetime.end.p0(i64 8, ptr nonnull %4) #24
  ret void
}